target datalayout = "e-m:e-p270:32:32-p271:32:32-p272:64:64-i64:64-i128:128-f80:128-n8:16:32:64-S128"
target triple = "x86_64-pc-linux-gnu"

%struct.bloom_filter = type { ptr, i64, i32, ptr }
%struct.repository = type { ptr, ptr, ptr, ptr, ptr, %struct.strmap, %struct.strmap, %struct.repo_path_cache, ptr, ptr, ptr, ptr, %struct.repo_settings, ptr, ptr, ptr, ptr, ptr, ptr, i32, i32, i32, ptr, ptr, i32, i32, i8 }
%struct.strmap = type { %struct.hashmap, ptr, i8 }
%struct.hashmap = type { ptr, ptr, ptr, i32, i32, i32, i32, i8 }
%struct.repo_path_cache = type { ptr, ptr, ptr, ptr, ptr, ptr, ptr }
%struct.repo_settings = type { i32, i32, i32, i32, i32, i32, i32, i32, i32, i32, i32, i32, ptr, i32, i32, i32, i32, i32, i32, i32, i64, i64, i64 }

; Function Attrs: nounwind uwtable
define dso_local ptr @get_bloom_filter(ptr noundef %0, ptr noundef %1) #0 {
  %3 = alloca ptr, align 8
  %4 = alloca ptr, align 8
  %5 = alloca ptr, align 8
  %6 = alloca ptr, align 8
  %7 = alloca i32, align 4
  %8 = alloca i32, align 4
  store ptr %0, ptr %4, align 8, !tbaa !61
  store ptr %1, ptr %5, align 8, !tbaa !63
  call void @llvm.lifetime.start.p0(i64 8, ptr %6) #8
  call void @llvm.lifetime.start.p0(i64 4, ptr %7) #8
  %9 = load ptr, ptr %4, align 8, !tbaa !61
  %10 = load ptr, ptr %5, align 8, !tbaa !63
  %11 = call ptr @get_or_compute_bloom_filter(ptr noundef %9, ptr noundef %10, i32 noundef 0, ptr noundef null, ptr noundef null)
  store ptr %11, ptr %6, align 8, !tbaa !9
  %12 = load ptr, ptr %6, align 8, !tbaa !9
  %13 = icmp ne ptr %12, null
  br i1 %13, label %15, label %14

14:                                               ; preds = %2
  store ptr null, ptr %3, align 8
  store i32 1, ptr %8, align 4
  br label %32

15:                                               ; preds = %2
  %16 = load ptr, ptr %4, align 8, !tbaa !61
  call void @prepare_repo_settings(ptr noundef %16)
  %17 = load ptr, ptr %4, align 8, !tbaa !61
  %18 = getelementptr inbounds nuw %struct.repository, ptr %17, i32 0, i32 12
  %19 = getelementptr inbounds nuw %struct.repo_settings, ptr %18, i32 0, i32 3
  %20 = load i32, ptr %19, align 4, !tbaa !65
  store i32 %20, ptr %7, align 4, !tbaa !11
  %21 = load i32, ptr %7, align 4, !tbaa !11
  %22 = icmp eq i32 %21, -1
  br i1 %22, label %30, label %23

23:                                               ; preds = %15
  %24 = load i32, ptr %7, align 4, !tbaa !11
  %25 = load ptr, ptr %6, align 8, !tbaa !9
  %26 = getelementptr inbounds nuw %struct.bloom_filter, ptr %25, i32 0, i32 2
  %27 = load i32, ptr %26, align 8, !tbaa !34
  %28 = icmp eq i32 %24, %27
  br i1 %28, label %30, label %29

29:                                               ; preds = %23
  store ptr null, ptr %3, align 8
  store i32 1, ptr %8, align 4
  br label %32

30:                                               ; preds = %23, %15
  %31 = load ptr, ptr %6, align 8, !tbaa !9
  store ptr %31, ptr %3, align 8
  store i32 1, ptr %8, align 4
  br label %32

32:                                               ; preds = %30, %29, %14
  call void @llvm.lifetime.end.p0(i64 4, ptr %7) #8
  call void @llvm.lifetime.end.p0(i64 8, ptr %6) #8
  %33 = load ptr, ptr %3, align 8
  ret ptr %33
}