; Function Attrs: nounwind uwtable
define dso_local noundef ptr @get_bloom_filter(ptr noundef %0, ptr noundef %1) local_unnamed_addr #0 {
  %3 = tail call ptr @get_or_compute_bloom_filter(ptr noundef %0, ptr noundef %1, i32 noundef 0, ptr noundef null, ptr noundef null)
  %.not = icmp eq ptr %3, null
  br i1 %.not, label %13, label %4

4:                                                ; preds = %2
  tail call void @prepare_repo_settings(ptr noundef %0) #14
  %5 = getelementptr inbounds nuw i8, ptr %0, i64 268
  %6 = load i32, ptr %5, align 4, !tbaa !52
  %7 = icmp eq i32 %6, -1
  br i1 %7, label %12, label %8

8:                                                ; preds = %4
  %9 = getelementptr inbounds nuw i8, ptr %3, i64 16
  %10 = load i32, ptr %9, align 8, !tbaa !32
  %11 = icmp eq i32 %6, %10
  br i1 %11, label %12, label %13

12:                                               ; preds = %8, %4
  br label %13

13:                                               ; preds = %8, %2, %12
  %.0 = phi ptr [ %3, %12 ], [ null, %2 ], [ null, %8 ]
  ret ptr %.0
}